; Function Attrs: nofree norecurse nosync nounwind memory(readwrite, inaccessiblemem: none) uwtable
define hidden void @ByteIndexedBmToUshort555RgbXparBgCopy(ptr noundef %0, ptr noundef %1, i32 noundef %2, i32 noundef %3, i32 noundef %4, ptr nocapture noundef readonly %5, ptr nocapture noundef readonly %6, ptr nocapture readnone %7, ptr nocapture readnone %8) #1 {
  %10 = alloca [256 x i32], align 16
  %11 = getelementptr inbounds i8, ptr %5, i64 40
  %12 = load ptr, ptr %11, align 8
  %13 = getelementptr inbounds i8, ptr %5, i64 36
  %14 = load i32, ptr %13, align 4
  %15 = icmp ugt i32 %14, 255
  br i1 %15, label %.loopexit, label %16

16:                                               ; preds = %9
  %17 = shl nuw nsw i32 %14, 2
  %.idx = zext nneg i32 %17 to i64
  br label %18

18:                                               ; preds = %18, %16
  %.043.idx = phi i64 [ %.idx, %16 ], [ %.043.add, %18 ]
  %.043.ptr = getelementptr inbounds i8, ptr %10, i64 %.043.idx
  store i32 %4, ptr %.043.ptr, align 4
  %.043.add = add nuw nsw i64 %.043.idx, 4
  %19 = icmp ult i64 %.043.idx, 1020
  br i1 %19, label %18, label %.loopexit, !llvm.loop !37

.loopexit:                                        ; preds = %18, %9
  %.041 = phi i32 [ 256, %9 ], [ %14, %18 ]
  %umax = tail call i32 @llvm.umax.i32(i32 %.041, i32 1)
  %wide.trip.count = zext nneg i32 %umax to i64
  br label %20

20:                                               ; preds = %33, %.loopexit
  %indvars.iv = phi i64 [ %indvars.iv.next, %33 ], [ 0, %.loopexit ]
  %21 = getelementptr inbounds i32, ptr %12, i64 %indvars.iv
  %22 = load i32, ptr %21, align 4
  %23 = icmp slt i32 %22, 0
  br i1 %23, label %24, label %33

24:                                               ; preds = %20
  %25 = lshr i32 %22, 9
  %26 = and i32 %25, 31744
  %27 = lshr i32 %22, 6
  %28 = and i32 %27, 992
  %29 = or disjoint i32 %26, %28
  %30 = lshr i32 %22, 3
  %31 = and i32 %30, 31
  %32 = or disjoint i32 %29, %31
  br label %33

33:                                               ; preds = %20, %24
  %.sink = phi i32 [ %32, %24 ], [ %4, %20 ]
  %34 = getelementptr inbounds [256 x i32], ptr %10, i64 0, i64 %indvars.iv
  store i32 %.sink, ptr %34, align 4
  %indvars.iv.next = add nuw nsw i64 %indvars.iv, 1
  %exitcond.not = icmp eq i64 %indvars.iv.next, %wide.trip.count
  br i1 %exitcond.not, label %35, label %20, !llvm.loop !38

35:                                               ; preds = %33
  %36 = getelementptr inbounds i8, ptr %5, i64 32
  %37 = load i32, ptr %36, align 8
  %38 = getelementptr inbounds i8, ptr %6, i64 32
  %39 = load i32, ptr %38, align 8
  %40 = sub i32 %37, %2
  %41 = shl i32 %2, 1
  %42 = sub i32 %39, %41
  %43 = sext i32 %40 to i64
  %44 = sext i32 %42 to i64
  br label %45

45:                                               ; preds = %59, %35
  %.039 = phi ptr [ %0, %35 ], [ %61, %59 ]
  %.038 = phi ptr [ %1, %35 ], [ %63, %59 ]
  %.0 = phi i32 [ %3, %35 ], [ %64, %59 ]
  br label %46

46:                                               ; preds = %46, %45
  %.140 = phi ptr [ %.039, %45 ], [ %54, %46 ]
  %.1 = phi ptr [ %.038, %45 ], [ %57, %46 ]
  %.037 = phi i32 [ %2, %45 ], [ %58, %46 ]
  %47 = load i8, ptr %.140, align 1
  %48 = zext i8 %47 to i64
  %49 = getelementptr inbounds [256 x i32], ptr %10, i64 0, i64 %48
  %50 = load i32, ptr %49, align 4
  %51 = trunc i32 %50 to i16
  store i16 %51, ptr %.1, align 2
  %52 = ptrtoint ptr %.140 to i64
  %53 = add nsw i64 %52, 1
  %54 = inttoptr i64 %53 to ptr
  %55 = ptrtoint ptr %.1 to i64
  %56 = add nsw i64 %55, 2
  %57 = inttoptr i64 %56 to ptr
  %58 = add i32 %.037, -1
  %.not = icmp eq i32 %58, 0
  br i1 %.not, label %59, label %46, !llvm.loop !39

59:                                               ; preds = %46
  %60 = add nsw i64 %53, %43
  %61 = inttoptr i64 %60 to ptr
  %62 = add nsw i64 %56, %44
  %63 = inttoptr i64 %62 to ptr
  %64 = add i32 %.0, -1
  %.not49 = icmp eq i32 %64, 0
  br i1 %.not49, label %65, label %45, !llvm.loop !40

65:                                               ; preds = %59
  ret void
}